target datalayout = "e-m:e-p270:32:32-p271:32:32-p272:64:64-i64:64-i128:128-f80:128-n8:16:32:64-S128"
target triple = "x86_64-pc-linux-gnu"

%struct.autosar_dlt_params = type { ptr, ptr, ptr, ptr }
%struct.autosar_dlt_blockheader = type { [4 x i8], i32, i32, [4 x i8] }
%struct.autosar_dlt_itemheader = type { i8, i8, i16 }
%struct.wtap_rec = type { i32, i32, i32, %struct.nstime_t, i32, %struct.nstime_t, i8, %union.anon, ptr, i8, %struct.Buffer, %struct.Buffer }
%struct.nstime_t = type { i64, i32 }
%union.anon = type { %struct.wtap_packet_header }
%struct.wtap_packet_header = type { i32, i32, i32, i32, %union.wtap_pseudo_header }
%union.wtap_pseudo_header = type { %struct.erf_mc_phdr }
%struct.erf_mc_phdr = type { %struct.erf_phdr, [16 x %struct.erf_ehdr], %union.anon.1 }
%struct.erf_phdr = type { i64, i8, i8, i16, i16, i16 }
%struct.erf_ehdr = type { i64 }
%union.anon.1 = type { i32 }
%struct.Buffer = type { ptr, i64, i64, i64 }

@dlt_magic = internal constant [4 x i8] c"DLT\01", align 1
@.str.1 = private unnamed_addr constant [78 x i8] c"AUTOSAR DLT: Capture file cut short! Cannot find storage header at pos 0x%lx!\00", align 1
@.str.2 = private unnamed_addr constant [73 x i8] c"AUTOSAR DLT: Bad capture file! Object magic is not DLT\\x01 at pos 0x%lx!\00", align 1
@.str.3 = private unnamed_addr constant [84 x i8] c"AUTOSAR DLT: Capture file cut short! Not enough bytes for item header at pos 0x%lx!\00", align 1
@.str.4 = private unnamed_addr constant [79 x i8] c"AUTOSAR DLT: Internal Error! Not enough bytes for storage header at pos 0x%lx!\00", align 1
@.str.5 = private unnamed_addr constant [77 x i8] c"AUTOSAR DLT: Capture file cut short! Not enough bytes for item at pos 0x%lx!\00", align 1

; Function Attrs: nounwind null_pointer_is_valid sspstrong uwtable
define internal void @fix_endianness_autosar_dlt_itemheader(ptr noundef %0) #8 {
  %2 = alloca ptr, align 8
  store ptr %0, ptr %2, align 8
  %3 = load ptr, ptr %2, align 8
  %4 = getelementptr inbounds nuw %struct.autosar_dlt_itemheader, ptr %3, i32 0, i32 2
  %5 = load i16, ptr %4, align 2
  %6 = zext i16 %5 to i32
  %7 = ashr i32 %6, 8
  %8 = trunc i32 %7 to i16
  %9 = zext i16 %8 to i32
  %10 = load ptr, ptr %2, align 8
  %11 = getelementptr inbounds nuw %struct.autosar_dlt_itemheader, ptr %10, i32 0, i32 2
  %12 = load i16, ptr %11, align 2
  %13 = zext i16 %12 to i32
  %14 = shl i32 %13, 8
  %15 = trunc i32 %14 to i16
  %16 = zext i16 %15 to i32
  %17 = or i32 %9, %16
  %18 = trunc i32 %17 to i16
  %19 = load ptr, ptr %2, align 8
  %20 = getelementptr inbounds nuw %struct.autosar_dlt_itemheader, ptr %19, i32 0, i32 2
  store i16 %18, ptr %20, align 2
  ret void
}

; Function Attrs: nounwind null_pointer_is_valid sspstrong uwtable
define internal void @fix_endianness_autosar_dlt_blockheader(ptr noundef %0) #8 {
  %2 = alloca ptr, align 8
  store ptr %0, ptr %2, align 8
  %3 = load ptr, ptr %2, align 8
  %4 = getelementptr inbounds nuw %struct.autosar_dlt_blockheader, ptr %3, i32 0, i32 1
  %5 = load i32, ptr %4, align 4
  %6 = load ptr, ptr %2, align 8
  %7 = getelementptr inbounds nuw %struct.autosar_dlt_blockheader, ptr %6, i32 0, i32 1
  store i32 %5, ptr %7, align 4
  %8 = load ptr, ptr %2, align 8
  %9 = getelementptr inbounds nuw %struct.autosar_dlt_blockheader, ptr %8, i32 0, i32 2
  %10 = load i32, ptr %9, align 4
  %11 = load ptr, ptr %2, align 8
  %12 = getelementptr inbounds nuw %struct.autosar_dlt_blockheader, ptr %11, i32 0, i32 2
  store i32 %10, ptr %12, align 4
  ret void
}

; Function Attrs: null_pointer_is_valid sspstrong uwtable
define internal zeroext i1 @autosar_dlt_read_block(ptr noundef %0, i64 noundef %1, ptr noundef %2, ptr noundef %3) #0 {
  %5 = alloca i1, align 1
  %6 = alloca ptr, align 8
  %7 = alloca i64, align 8
  %8 = alloca ptr, align 8
  %9 = alloca ptr, align 8
  %10 = alloca %struct.autosar_dlt_blockheader, align 4
  %11 = alloca %struct.autosar_dlt_itemheader, align 2
  %12 = alloca i32, align 4
  %13 = alloca i64, align 8
  %14 = alloca ptr, align 8
  store ptr %0, ptr %6, align 8
  store i64 %1, ptr %7, align 8
  store ptr %2, ptr %8, align 8
  store ptr %3, ptr %9, align 8
  call void @llvm.lifetime.start.p0(i64 16, ptr %10) #9
  call void @llvm.lifetime.start.p0(i64 4, ptr %11) #9
  br label %15

15:                                               ; preds = %4
  br label %16

16:                                               ; preds = %15
  %17 = load ptr, ptr %6, align 8
  %18 = getelementptr inbounds nuw %struct.autosar_dlt_params, ptr %17, i32 0, i32 1
  %19 = load ptr, ptr %18, align 8
  %20 = getelementptr inbounds nuw %struct.wtap_rec, ptr %19, i32 0, i32 11
  %21 = getelementptr inbounds nuw %struct.Buffer, ptr %20, i32 0, i32 2
  %22 = load i64, ptr %21, align 8
  %23 = load ptr, ptr %6, align 8
  %24 = getelementptr inbounds nuw %struct.autosar_dlt_params, ptr %23, i32 0, i32 1
  %25 = load ptr, ptr %24, align 8
  %26 = getelementptr inbounds nuw %struct.wtap_rec, ptr %25, i32 0, i32 11
  %27 = getelementptr inbounds nuw %struct.Buffer, ptr %26, i32 0, i32 3
  store i64 %22, ptr %27, align 8
  %28 = load ptr, ptr %6, align 8
  %29 = getelementptr inbounds nuw %struct.autosar_dlt_params, ptr %28, i32 0, i32 2
  %30 = load ptr, ptr %29, align 8
  %31 = load ptr, ptr %8, align 8
  %32 = load ptr, ptr %9, align 8
  %33 = call zeroext i1 @wtap_read_bytes_or_eof(ptr noundef %30, ptr noundef %10, i32 noundef 16, ptr noundef %31, ptr noundef %32)
  br i1 %33, label %46, label %34

34:                                               ; preds = %16
  %35 = load ptr, ptr %8, align 8
  %36 = load i32, ptr %35, align 4
  %37 = icmp eq i32 %36, -12
  br i1 %37, label %38, label %45

38:                                               ; preds = %34
  %39 = load ptr, ptr %8, align 8
  store i32 -13, ptr %39, align 4
  %40 = load ptr, ptr %9, align 8
  %41 = load ptr, ptr %40, align 8
  call void @g_free(ptr noundef %41)
  %42 = load i64, ptr %7, align 8
  %43 = call noalias ptr (ptr, ptr, ...) @wmem_strdup_printf(ptr noundef null, ptr noundef @.str.1, i64 noundef %42)
  %44 = load ptr, ptr %9, align 8
  store ptr %43, ptr %44, align 8
  br label %45

45:                                               ; preds = %38, %34
  store i1 false, ptr %5, align 1
  store i32 1, ptr %12, align 4
  br label %221

46:                                               ; preds = %16
  call void @fix_endianness_autosar_dlt_blockheader(ptr noundef %10)
  %47 = getelementptr inbounds nuw %struct.autosar_dlt_blockheader, ptr %10, i32 0, i32 0
  %48 = getelementptr inbounds [4 x i8], ptr %47, i64 0, i64 0
  %49 = call i32 @memcmp(ptr noundef %48, ptr noundef @dlt_magic, i64 noundef 4) #10
  %50 = icmp ne i32 %49, 0
  br i1 %50, label %51, label %56

51:                                               ; preds = %46
  %52 = load ptr, ptr %8, align 8
  store i32 -13, ptr %52, align 4
  %53 = load i64, ptr %7, align 8
  %54 = call noalias ptr (ptr, ptr, ...) @wmem_strdup_printf(ptr noundef null, ptr noundef @.str.2, i64 noundef %53)
  %55 = load ptr, ptr %9, align 8
  store ptr %54, ptr %55, align 8
  store i1 false, ptr %5, align 1
  store i32 1, ptr %12, align 4
  br label %221

56:                                               ; preds = %46
  call void @llvm.lifetime.start.p0(i64 8, ptr %13) #9
  %57 = load ptr, ptr %6, align 8
  %58 = getelementptr inbounds nuw %struct.autosar_dlt_params, ptr %57, i32 0, i32 2
  %59 = load ptr, ptr %58, align 8
  %60 = call i64 @file_tell(ptr noundef %59)
  %61 = sub i64 %60, 16
  %62 = add i64 %61, 4
  store i64 %62, ptr %13, align 8
  %63 = load ptr, ptr %6, align 8
  %64 = getelementptr inbounds nuw %struct.autosar_dlt_params, ptr %63, i32 0, i32 2
  %65 = load ptr, ptr %64, align 8
  %66 = load ptr, ptr %8, align 8
  %67 = load ptr, ptr %9, align 8
  %68 = call zeroext i1 @wtap_read_bytes_or_eof(ptr noundef %65, ptr noundef %11, i32 noundef 4, ptr noundef %66, ptr noundef %67)
  br i1 %68, label %76, label %69

69:                                               ; preds = %56
  %70 = load ptr, ptr %8, align 8
  store i32 -13, ptr %70, align 4
  %71 = load ptr, ptr %9, align 8
  %72 = load ptr, ptr %71, align 8
  call void @g_free(ptr noundef %72)
  %73 = load i64, ptr %7, align 8
  %74 = call noalias ptr (ptr, ptr, ...) @wmem_strdup_printf(ptr noundef null, ptr noundef @.str.3, i64 noundef %73)
  %75 = load ptr, ptr %9, align 8
  store ptr %74, ptr %75, align 8
  store i1 false, ptr %5, align 1
  store i32 1, ptr %12, align 4
  br label %220

76:                                               ; preds = %56
  call void @fix_endianness_autosar_dlt_itemheader(ptr noundef %11)
  %77 = load ptr, ptr %6, align 8
  %78 = getelementptr inbounds nuw %struct.autosar_dlt_params, ptr %77, i32 0, i32 2
  %79 = load ptr, ptr %78, align 8
  %80 = load i64, ptr %13, align 8
  %81 = load ptr, ptr %8, align 8
  %82 = call i64 @file_seek(ptr noundef %79, i64 noundef %80, i32 noundef 0, ptr noundef %81)
  %83 = icmp slt i64 %82, 0
  br i1 %83, label %84, label %85

84:                                               ; preds = %76
  store i1 false, ptr %5, align 1
  store i32 1, ptr %12, align 4
  br label %220

85:                                               ; preds = %76
  %86 = load ptr, ptr %6, align 8
  %87 = getelementptr inbounds nuw %struct.autosar_dlt_params, ptr %86, i32 0, i32 1
  %88 = load ptr, ptr %87, align 8
  %89 = getelementptr inbounds nuw %struct.wtap_rec, ptr %88, i32 0, i32 11
  %90 = getelementptr inbounds nuw %struct.autosar_dlt_itemheader, ptr %11, i32 0, i32 2
  %91 = load i16, ptr %90, align 2
  %92 = zext i16 %91 to i64
  %93 = add i64 %92, 16
  call void @ws_buffer_assure_space(ptr noundef %89, i64 noundef %93)
  call void @llvm.lifetime.start.p0(i64 8, ptr %14) #9
  %94 = call noalias ptr @g_malloc0(i64 noundef 16) #11
  store ptr %94, ptr %14, align 8
  %95 = load ptr, ptr %6, align 8
  %96 = getelementptr inbounds nuw %struct.autosar_dlt_params, ptr %95, i32 0, i32 2
  %97 = load ptr, ptr %96, align 8
  %98 = load ptr, ptr %14, align 8
  %99 = load ptr, ptr %8, align 8
  %100 = load ptr, ptr %9, align 8
  %101 = call zeroext i1 @wtap_read_bytes_or_eof(ptr noundef %97, ptr noundef %98, i32 noundef 12, ptr noundef %99, ptr noundef %100)
  br i1 %101, label %109, label %102

102:                                              ; preds = %85
  %103 = load ptr, ptr %8, align 8
  store i32 -13, ptr %103, align 4
  %104 = load ptr, ptr %9, align 8
  %105 = load ptr, ptr %104, align 8
  call void @g_free(ptr noundef %105)
  %106 = load i64, ptr %7, align 8
  %107 = call noalias ptr (ptr, ptr, ...) @wmem_strdup_printf(ptr noundef null, ptr noundef @.str.4, i64 noundef %106)
  %108 = load ptr, ptr %9, align 8
  store ptr %107, ptr %108, align 8
  store i1 false, ptr %5, align 1
  store i32 1, ptr %12, align 4
  br label %219

109:                                              ; preds = %85
  %110 = load ptr, ptr %6, align 8
  %111 = getelementptr inbounds nuw %struct.autosar_dlt_params, ptr %110, i32 0, i32 1
  %112 = load ptr, ptr %111, align 8
  %113 = getelementptr inbounds nuw %struct.wtap_rec, ptr %112, i32 0, i32 11
  %114 = load ptr, ptr %14, align 8
  call void @ws_buffer_append(ptr noundef %113, ptr noundef %114, i64 noundef 16)
  %115 = load ptr, ptr %14, align 8
  call void @g_free(ptr noundef %115)
  %116 = getelementptr inbounds nuw %struct.autosar_dlt_itemheader, ptr %11, i32 0, i32 2
  %117 = load i16, ptr %116, align 2
  %118 = zext i16 %117 to i64
  %119 = call noalias ptr @g_try_malloc0(i64 noundef %118) #11
  store ptr %119, ptr %14, align 8
  %120 = load ptr, ptr %14, align 8
  %121 = icmp eq ptr %120, null
  br i1 %121, label %122, label %124

122:                                              ; preds = %109
  %123 = load ptr, ptr %8, align 8
  store i32 12, ptr %123, align 4
  store i1 false, ptr %5, align 1
  store i32 1, ptr %12, align 4
  br label %219

124:                                              ; preds = %109
  %125 = load ptr, ptr %6, align 8
  %126 = getelementptr inbounds nuw %struct.autosar_dlt_params, ptr %125, i32 0, i32 2
  %127 = load ptr, ptr %126, align 8
  %128 = load ptr, ptr %14, align 8
  %129 = getelementptr inbounds nuw %struct.autosar_dlt_itemheader, ptr %11, i32 0, i32 2
  %130 = load i16, ptr %129, align 2
  %131 = zext i16 %130 to i32
  %132 = load ptr, ptr %8, align 8
  %133 = load ptr, ptr %9, align 8
  %134 = call zeroext i1 @wtap_read_bytes_or_eof(ptr noundef %127, ptr noundef %128, i32 noundef %131, ptr noundef %132, ptr noundef %133)
  br i1 %134, label %142, label %135

135:                                              ; preds = %124
  %136 = load ptr, ptr %8, align 8
  store i32 -13, ptr %136, align 4
  %137 = load ptr, ptr %9, align 8
  %138 = load ptr, ptr %137, align 8
  call void @g_free(ptr noundef %138)
  %139 = load i64, ptr %7, align 8
  %140 = call noalias ptr (ptr, ptr, ...) @wmem_strdup_printf(ptr noundef null, ptr noundef @.str.5, i64 noundef %139)
  %141 = load ptr, ptr %9, align 8
  store ptr %140, ptr %141, align 8
  store i1 false, ptr %5, align 1
  store i32 1, ptr %12, align 4
  br label %219

142:                                              ; preds = %124
  %143 = load ptr, ptr %6, align 8
  %144 = getelementptr inbounds nuw %struct.autosar_dlt_params, ptr %143, i32 0, i32 1
  %145 = load ptr, ptr %144, align 8
  %146 = getelementptr inbounds nuw %struct.wtap_rec, ptr %145, i32 0, i32 11
  %147 = load ptr, ptr %14, align 8
  %148 = getelementptr inbounds nuw %struct.autosar_dlt_itemheader, ptr %11, i32 0, i32 2
  %149 = load i16, ptr %148, align 2
  %150 = zext i16 %149 to i64
  call void @ws_buffer_append(ptr noundef %146, ptr noundef %147, i64 noundef %150)
  %151 = load ptr, ptr %14, align 8
  call void @g_free(ptr noundef %151)
  %152 = load ptr, ptr %6, align 8
  %153 = getelementptr inbounds nuw %struct.autosar_dlt_params, ptr %152, i32 0, i32 1
  %154 = load ptr, ptr %153, align 8
  %155 = getelementptr inbounds nuw %struct.wtap_rec, ptr %154, i32 0, i32 0
  store i32 0, ptr %155, align 8
  %156 = call ptr @wtap_block_create(i32 noundef 5)
  %157 = load ptr, ptr %6, align 8
  %158 = getelementptr inbounds nuw %struct.autosar_dlt_params, ptr %157, i32 0, i32 1
  %159 = load ptr, ptr %158, align 8
  %160 = getelementptr inbounds nuw %struct.wtap_rec, ptr %159, i32 0, i32 8
  store ptr %156, ptr %160, align 8
  %161 = load ptr, ptr %6, align 8
  %162 = getelementptr inbounds nuw %struct.autosar_dlt_params, ptr %161, i32 0, i32 1
  %163 = load ptr, ptr %162, align 8
  %164 = getelementptr inbounds nuw %struct.wtap_rec, ptr %163, i32 0, i32 1
  store i32 7, ptr %164, align 4
  %165 = load ptr, ptr %6, align 8
  %166 = getelementptr inbounds nuw %struct.autosar_dlt_params, ptr %165, i32 0, i32 1
  %167 = load ptr, ptr %166, align 8
  %168 = getelementptr inbounds nuw %struct.wtap_rec, ptr %167, i32 0, i32 4
  store i32 6, ptr %168, align 8
  %169 = getelementptr inbounds nuw %struct.autosar_dlt_blockheader, ptr %10, i32 0, i32 1
  %170 = load i32, ptr %169, align 4
  %171 = zext i32 %170 to i64
  %172 = load ptr, ptr %6, align 8
  %173 = getelementptr inbounds nuw %struct.autosar_dlt_params, ptr %172, i32 0, i32 1
  %174 = load ptr, ptr %173, align 8
  %175 = getelementptr inbounds nuw %struct.wtap_rec, ptr %174, i32 0, i32 3
  %176 = getelementptr inbounds nuw %struct.nstime_t, ptr %175, i32 0, i32 0
  store i64 %171, ptr %176, align 8
  %177 = getelementptr inbounds nuw %struct.autosar_dlt_blockheader, ptr %10, i32 0, i32 2
  %178 = load i32, ptr %177, align 4
  %179 = mul i32 %178, 1000
  %180 = load ptr, ptr %6, align 8
  %181 = getelementptr inbounds nuw %struct.autosar_dlt_params, ptr %180, i32 0, i32 1
  %182 = load ptr, ptr %181, align 8
  %183 = getelementptr inbounds nuw %struct.wtap_rec, ptr %182, i32 0, i32 3
  %184 = getelementptr inbounds nuw %struct.nstime_t, ptr %183, i32 0, i32 1
  store i32 %179, ptr %184, align 8
  %185 = getelementptr inbounds nuw %struct.autosar_dlt_itemheader, ptr %11, i32 0, i32 2
  %186 = load i16, ptr %185, align 2
  %187 = zext i16 %186 to i64
  %188 = add i64 %187, 16
  %189 = trunc i64 %188 to i32
  %190 = load ptr, ptr %6, align 8
  %191 = getelementptr inbounds nuw %struct.autosar_dlt_params, ptr %190, i32 0, i32 1
  %192 = load ptr, ptr %191, align 8
  %193 = getelementptr inbounds nuw %struct.wtap_rec, ptr %192, i32 0, i32 7
  %194 = getelementptr inbounds nuw %struct.wtap_packet_header, ptr %193, i32 0, i32 0
  store i32 %189, ptr %194, align 8
  %195 = getelementptr inbounds nuw %struct.autosar_dlt_itemheader, ptr %11, i32 0, i32 2
  %196 = load i16, ptr %195, align 2
  %197 = zext i16 %196 to i64
  %198 = add i64 %197, 16
  %199 = trunc i64 %198 to i32
  %200 = load ptr, ptr %6, align 8
  %201 = getelementptr inbounds nuw %struct.autosar_dlt_params, ptr %200, i32 0, i32 1
  %202 = load ptr, ptr %201, align 8
  %203 = getelementptr inbounds nuw %struct.wtap_rec, ptr %202, i32 0, i32 7
  %204 = getelementptr inbounds nuw %struct.wtap_packet_header, ptr %203, i32 0, i32 1
  store i32 %199, ptr %204, align 4
  %205 = load ptr, ptr %6, align 8
  %206 = getelementptr inbounds nuw %struct.autosar_dlt_params, ptr %205, i32 0, i32 1
  %207 = load ptr, ptr %206, align 8
  %208 = getelementptr inbounds nuw %struct.wtap_rec, ptr %207, i32 0, i32 7
  %209 = getelementptr inbounds nuw %struct.wtap_packet_header, ptr %208, i32 0, i32 2
  store i32 218, ptr %209, align 8
  %210 = load ptr, ptr %6, align 8
  %211 = getelementptr inbounds nuw %struct.autosar_dlt_blockheader, ptr %10, i32 0, i32 3
  %212 = getelementptr inbounds [4 x i8], ptr %211, i64 0, i64 0
  %213 = call i32 @autosar_dlt_lookup_interface(ptr noundef %210, ptr noundef %212)
  %214 = load ptr, ptr %6, align 8
  %215 = getelementptr inbounds nuw %struct.autosar_dlt_params, ptr %214, i32 0, i32 1
  %216 = load ptr, ptr %215, align 8
  %217 = getelementptr inbounds nuw %struct.wtap_rec, ptr %216, i32 0, i32 7
  %218 = getelementptr inbounds nuw %struct.wtap_packet_header, ptr %217, i32 0, i32 3
  store i32 %213, ptr %218, align 4
  store i1 true, ptr %5, align 1
  store i32 1, ptr %12, align 4
  br label %219

219:                                              ; preds = %142, %135, %122, %102
  call void @llvm.lifetime.end.p0(i64 8, ptr %14) #9
  br label %220

220:                                              ; preds = %219, %84, %69
  call void @llvm.lifetime.end.p0(i64 8, ptr %13) #9
  br label %221

221:                                              ; preds = %220, %51, %45
  call void @llvm.lifetime.end.p0(i64 4, ptr %11) #9
  call void @llvm.lifetime.end.p0(i64 16, ptr %10) #9
  %222 = load i1, ptr %5, align 1
  ret i1 %222
}