; Function Attrs: null_pointer_is_valid sspstrong uwtable
define internal fastcc noundef zeroext i1 @autosar_dlt_read_block(ptr noundef readonly captures(none) %0, i64 noundef %1, ptr noundef %2, ptr noundef %3) unnamed_addr #0 {
  %5 = alloca %struct.autosar_dlt_blockheader, align 4
  %6 = alloca %struct.autosar_dlt_itemheader, align 2
  call void @llvm.lifetime.start.p0(i64 16, ptr nonnull %5) #7
  call void @llvm.lifetime.start.p0(i64 4, ptr nonnull %6) #7
  %7 = getelementptr inbounds nuw i8, ptr %0, i64 8
  %8 = load ptr, ptr %7, align 8
  %9 = getelementptr inbounds nuw i8, ptr %8, i64 296
  %10 = load i64, ptr %9, align 8
  %11 = getelementptr inbounds nuw i8, ptr %8, i64 304
  store i64 %10, ptr %11, align 8
  %12 = getelementptr inbounds nuw i8, ptr %0, i64 16
  %13 = load ptr, ptr %12, align 8
  %14 = call zeroext i1 @wtap_read_bytes_or_eof(ptr noundef %13, ptr noundef nonnull %5, i32 noundef 16, ptr noundef %2, ptr noundef %3)
  br i1 %14, label %21, label %15

15:                                               ; preds = %4
  %16 = load i32, ptr %2, align 4
  %17 = icmp eq i32 %16, -12
  br i1 %17, label %18, label %103

18:                                               ; preds = %15
  store i32 -13, ptr %2, align 4
  %19 = load ptr, ptr %3, align 8
  call void @g_free(ptr noundef %19)
  %20 = call noalias ptr (ptr, ptr, ...) @wmem_strdup_printf(ptr noundef null, ptr noundef nonnull @.str.1, i64 noundef %1)
  store ptr %20, ptr %3, align 8
  br label %103

21:                                               ; preds = %4
  %lhsv = load i32, ptr %5, align 4
  %.not = icmp eq i32 %lhsv, 22301764
  br i1 %.not, label %24, label %22

22:                                               ; preds = %21
  store i32 -13, ptr %2, align 4
  %23 = call noalias ptr (ptr, ptr, ...) @wmem_strdup_printf(ptr noundef null, ptr noundef nonnull @.str.2, i64 noundef %1)
  store ptr %23, ptr %3, align 8
  br label %103

24:                                               ; preds = %21
  %25 = load ptr, ptr %12, align 8
  %26 = call i64 @file_tell(ptr noundef %25)
  %27 = load ptr, ptr %12, align 8
  %28 = call zeroext i1 @wtap_read_bytes_or_eof(ptr noundef %27, ptr noundef nonnull %6, i32 noundef 4, ptr noundef %2, ptr noundef %3)
  br i1 %28, label %32, label %29

29:                                               ; preds = %24
  store i32 -13, ptr %2, align 4
  %30 = load ptr, ptr %3, align 8
  call void @g_free(ptr noundef %30)
  %31 = call noalias ptr (ptr, ptr, ...) @wmem_strdup_printf(ptr noundef null, ptr noundef nonnull @.str.3, i64 noundef %1)
  store ptr %31, ptr %3, align 8
  br label %103

32:                                               ; preds = %24
  %33 = add i64 %26, -12
  %34 = getelementptr inbounds nuw i8, ptr %6, i64 2
  %35 = load i16, ptr %34, align 2
  %rev.i = call i16 @llvm.bswap.i16(i16 %35)
  store i16 %rev.i, ptr %34, align 2
  %36 = load ptr, ptr %12, align 8
  %37 = call i64 @file_seek(ptr noundef %36, i64 noundef %33, i32 noundef 0, ptr noundef %2)
  %38 = icmp slt i64 %37, 0
  br i1 %38, label %103, label %39

39:                                               ; preds = %32
  %40 = load ptr, ptr %7, align 8
  %41 = getelementptr inbounds nuw i8, ptr %40, i64 280
  %42 = load i16, ptr %34, align 2
  %43 = zext i16 %42 to i64
  %44 = add nuw nsw i64 %43, 16
  call void @ws_buffer_assure_space(ptr noundef nonnull %41, i64 noundef %44)
  %45 = call noalias dereferenceable_or_null(16) ptr @g_malloc0(i64 noundef 16) #8
  %46 = load ptr, ptr %12, align 8
  %47 = call zeroext i1 @wtap_read_bytes_or_eof(ptr noundef %46, ptr noundef %45, i32 noundef 12, ptr noundef %2, ptr noundef %3)
  br i1 %47, label %51, label %48

48:                                               ; preds = %39
  store i32 -13, ptr %2, align 4
  %49 = load ptr, ptr %3, align 8
  call void @g_free(ptr noundef %49)
  %50 = call noalias ptr (ptr, ptr, ...) @wmem_strdup_printf(ptr noundef null, ptr noundef nonnull @.str.4, i64 noundef %1)
  store ptr %50, ptr %3, align 8
  br label %103

51:                                               ; preds = %39
  %52 = load ptr, ptr %7, align 8
  %53 = getelementptr inbounds nuw i8, ptr %52, i64 280
  call void @ws_buffer_append(ptr noundef nonnull %53, ptr noundef %45, i64 noundef 16)
  call void @g_free(ptr noundef %45)
  %54 = load i16, ptr %34, align 2
  %55 = zext i16 %54 to i64
  %56 = call noalias ptr @g_try_malloc0(i64 noundef %55) #8
  %57 = icmp eq ptr %56, null
  br i1 %57, label %58, label %59

58:                                               ; preds = %51
  store i32 12, ptr %2, align 4
  br label %103

59:                                               ; preds = %51
  %60 = load ptr, ptr %12, align 8
  %61 = load i16, ptr %34, align 2
  %62 = zext i16 %61 to i32
  %63 = call zeroext i1 @wtap_read_bytes_or_eof(ptr noundef %60, ptr noundef nonnull %56, i32 noundef %62, ptr noundef %2, ptr noundef %3)
  br i1 %63, label %67, label %64

64:                                               ; preds = %59
  store i32 -13, ptr %2, align 4
  %65 = load ptr, ptr %3, align 8
  call void @g_free(ptr noundef %65)
  %66 = call noalias ptr (ptr, ptr, ...) @wmem_strdup_printf(ptr noundef null, ptr noundef nonnull @.str.5, i64 noundef %1)
  store ptr %66, ptr %3, align 8
  br label %103

67:                                               ; preds = %59
  %68 = load ptr, ptr %7, align 8
  %69 = getelementptr inbounds nuw i8, ptr %68, i64 280
  %70 = load i16, ptr %34, align 2
  %71 = zext i16 %70 to i64
  call void @ws_buffer_append(ptr noundef nonnull %69, ptr noundef nonnull %56, i64 noundef %71)
  call void @g_free(ptr noundef nonnull %56)
  %72 = load ptr, ptr %7, align 8
  store i32 0, ptr %72, align 8
  %73 = call ptr @wtap_block_create(i32 noundef 5)
  %74 = load ptr, ptr %7, align 8
  %75 = getelementptr inbounds nuw i8, ptr %74, i64 232
  store ptr %73, ptr %75, align 8
  %76 = load ptr, ptr %7, align 8
  %77 = getelementptr inbounds nuw i8, ptr %76, i64 4
  store i32 7, ptr %77, align 4
  %78 = load ptr, ptr %7, align 8
  %79 = getelementptr inbounds nuw i8, ptr %78, i64 32
  store i32 6, ptr %79, align 8
  %80 = getelementptr inbounds nuw i8, ptr %5, i64 4
  %81 = load i32, ptr %80, align 4
  %82 = zext i32 %81 to i64
  %83 = load ptr, ptr %7, align 8
  %84 = getelementptr inbounds nuw i8, ptr %83, i64 16
  store i64 %82, ptr %84, align 8
  %85 = getelementptr inbounds nuw i8, ptr %5, i64 8
  %86 = load i32, ptr %85, align 4
  %87 = mul i32 %86, 1000
  %88 = load ptr, ptr %7, align 8
  %89 = getelementptr inbounds nuw i8, ptr %88, i64 24
  store i32 %87, ptr %89, align 8
  %90 = load i16, ptr %34, align 2
  %91 = zext i16 %90 to i32
  %92 = add nuw nsw i32 %91, 16
  %93 = load ptr, ptr %7, align 8
  %94 = getelementptr inbounds nuw i8, ptr %93, i64 64
  store i32 %92, ptr %94, align 8
  %95 = load ptr, ptr %7, align 8
  %96 = getelementptr inbounds nuw i8, ptr %95, i64 68
  store i32 %92, ptr %96, align 4
  %97 = load ptr, ptr %7, align 8
  %98 = getelementptr inbounds nuw i8, ptr %97, i64 72
  store i32 218, ptr %98, align 8
  %99 = getelementptr inbounds nuw i8, ptr %5, i64 12
  %100 = call fastcc i32 @autosar_dlt_lookup_interface(ptr noundef %0, ptr noundef nonnull %99)
  %101 = load ptr, ptr %7, align 8
  %102 = getelementptr inbounds nuw i8, ptr %101, i64 76
  store i32 %100, ptr %102, align 4
  br label %103

103:                                              ; preds = %29, %32, %67, %64, %58, %48, %15, %18, %22
  %.0 = phi i1 [ false, %22 ], [ false, %18 ], [ false, %15 ], [ false, %29 ], [ false, %32 ], [ false, %58 ], [ true, %67 ], [ false, %64 ], [ false, %48 ]
  call void @llvm.lifetime.end.p0(i64 4, ptr nonnull %6) #7
  call void @llvm.lifetime.end.p0(i64 16, ptr nonnull %5) #7
  ret i1 %.0
}